target datalayout = "e-m:e-p270:32:32-p271:32:32-p272:64:64-i64:64-i128:128-f80:128-n8:16:32:64-S128"
target triple = "x86_64-pc-linux-gnu"

%struct._zval_struct = type { %union._zend_value, %union.anon, %union.anon.2 }
%union._zend_value = type { i64 }
%union.anon = type { i32 }
%union.anon.2 = type { i32 }
%struct._zend_execute_data = type { ptr, ptr, ptr, ptr, %struct._zval_struct, ptr, ptr, ptr, ptr }
%struct._php_stream = type { ptr, ptr, %struct._php_stream_filter_chain, %struct._php_stream_filter_chain, ptr, ptr, %struct._zval_struct, i16, [16 x i8], i32, ptr, ptr, ptr, ptr, i64, ptr, i64, i64, i64, i64, ptr }
%struct._php_stream_filter_chain = type { ptr, ptr, ptr }

; Function Attrs: nounwind uwtable
define hidden void @zif_tmpfile(ptr noundef %0, ptr noundef %1) #0 {
  %3 = alloca ptr, align 8
  %4 = alloca ptr, align 8
  %5 = alloca ptr, align 8
  %6 = alloca i32, align 4
  %7 = alloca ptr, align 8
  store ptr %0, ptr %3, align 8, !tbaa !62
  store ptr %1, ptr %4, align 8, !tbaa !30
  call void @llvm.lifetime.start.p0(i64 8, ptr %5) #14
  br label %8

8:                                                ; preds = %2
  %9 = load ptr, ptr %3, align 8, !tbaa !62
  %10 = getelementptr inbounds nuw %struct._zend_execute_data, ptr %9, i32 0, i32 4
  %11 = getelementptr inbounds nuw %struct._zval_struct, ptr %10, i32 0, i32 2
  %12 = load i32, ptr %11, align 4, !tbaa !17
  %13 = icmp ne i32 %12, 0
  %14 = xor i1 %13, true
  %15 = xor i1 %14, true
  %16 = zext i1 %15 to i32
  %17 = sext i32 %16 to i64
  %18 = call i64 @llvm.expect.i64(i64 %17, i64 0)
  %19 = icmp ne i64 %18, 0
  br i1 %19, label %20, label %21

20:                                               ; preds = %8
  call void @zend_wrong_parameters_none_error()
  store i32 1, ptr %6, align 4
  br label %54

21:                                               ; preds = %8
  br label %22

22:                                               ; preds = %21
  br label %23

23:                                               ; preds = %22
  %24 = call ptr @_php_stream_fopen_tmpfile(i32 noundef 0)
  store ptr %24, ptr %5, align 8, !tbaa !27
  %25 = load ptr, ptr %5, align 8, !tbaa !27
  %26 = icmp ne ptr %25, null
  br i1 %26, label %27, label %44

27:                                               ; preds = %23
  br label %28

28:                                               ; preds = %27
  call void @llvm.lifetime.start.p0(i64 8, ptr %7) #14
  %29 = load ptr, ptr %4, align 8, !tbaa !30
  store ptr %29, ptr %7, align 8, !tbaa !30
  %30 = load ptr, ptr %5, align 8, !tbaa !27
  %31 = getelementptr inbounds nuw %struct._php_stream, ptr %30, i32 0, i32 10
  %32 = load ptr, ptr %31, align 8, !tbaa !107
  %33 = load ptr, ptr %7, align 8, !tbaa !30
  %34 = getelementptr inbounds nuw %struct._zval_struct, ptr %33, i32 0, i32 0
  store ptr %32, ptr %34, align 8, !tbaa !17
  %35 = load ptr, ptr %7, align 8, !tbaa !30
  %36 = getelementptr inbounds nuw %struct._zval_struct, ptr %35, i32 0, i32 1
  store i32 265, ptr %36, align 8, !tbaa !17
  call void @llvm.lifetime.end.p0(i64 8, ptr %7) #14
  br label %37

37:                                               ; preds = %28
  br label %38

38:                                               ; preds = %37
  %39 = load ptr, ptr %5, align 8, !tbaa !27
  %40 = getelementptr inbounds nuw %struct._php_stream, ptr %39, i32 0, i32 7
  %41 = load i16, ptr %40, align 8
  %42 = and i16 %41, -17
  %43 = or i16 %42, 16
  store i16 %43, ptr %40, align 8
  br label %53

44:                                               ; preds = %23
  br label %45

45:                                               ; preds = %44
  br label %46

46:                                               ; preds = %45
  %47 = load ptr, ptr %4, align 8, !tbaa !30
  %48 = getelementptr inbounds nuw %struct._zval_struct, ptr %47, i32 0, i32 1
  store i32 2, ptr %48, align 8, !tbaa !17
  br label %49

49:                                               ; preds = %46
  br label %50

50:                                               ; preds = %49
  store i32 1, ptr %6, align 4
  br label %54

51:                                               ; No predecessors!
  br label %52

52:                                               ; preds = %51
  br label %53

53:                                               ; preds = %52, %38
  store i32 0, ptr %6, align 4
  br label %54

54:                                               ; preds = %53, %50, %20
  call void @llvm.lifetime.end.p0(i64 8, ptr %5) #14
  %55 = load i32, ptr %6, align 4
  switch i32 %55, label %57 [
    i32 0, label %56
    i32 1, label %56
  ]

56:                                               ; preds = %54, %54
  ret void

57:                                               ; preds = %54
  unreachable
}