; Function Attrs: nounwind uwtable
define hidden void @zif_tmpfile(ptr noundef readonly captures(none) %0, ptr noundef writeonly captures(none) %1) local_unnamed_addr #1 {
  %3 = getelementptr inbounds nuw i8, ptr %0, i64 44
  %4 = load i32, ptr %3, align 4, !tbaa !21
  %.not = icmp eq i32 %4, 0
  br i1 %.not, label %6, label %5, !prof !52

5:                                                ; preds = %2
  tail call void @zend_wrong_parameters_none_error() #18
  br label %17

6:                                                ; preds = %2
  %7 = tail call ptr @_php_stream_fopen_tmpfile(i32 noundef 0) #18
  %.not8 = icmp eq ptr %7, null
  br i1 %.not8, label %15, label %8

8:                                                ; preds = %6
  %9 = getelementptr inbounds nuw i8, ptr %7, i64 120
  %10 = load ptr, ptr %9, align 8, !tbaa !95
  store ptr %10, ptr %1, align 8, !tbaa !21
  %11 = getelementptr inbounds nuw i8, ptr %1, i64 8
  store i32 265, ptr %11, align 8, !tbaa !21
  %12 = getelementptr inbounds nuw i8, ptr %7, i64 96
  %13 = load i16, ptr %12, align 8
  %14 = or i16 %13, 16
  store i16 %14, ptr %12, align 8
  br label %17

15:                                               ; preds = %6
  %16 = getelementptr inbounds nuw i8, ptr %1, i64 8
  store i32 2, ptr %16, align 8, !tbaa !21
  br label %17

17:                                               ; preds = %8, %15, %5
  ret void
}